target datalayout = "e-m:e-p270:32:32-p271:32:32-p272:64:64-i64:64-i128:128-f80:128-n8:16:32:64-S128"
target triple = "x86_64-unknown-linux-gnu"

%"class.hermes::vm::PinnedHermesValue" = type { %"class.hermes::vm::HermesValue" }
%"class.hermes::vm::HermesValue" = type { i64 }
%"class.facebook::hermes::HermesRuntimeImpl" = type <{ %"class.facebook::hermes::HermesRuntime", %"class.facebook::jsi::Instrumentation", %"class.facebook::hermes::HermesRuntimeImpl::ManagedValues", %"class.facebook::hermes::HermesRuntimeImpl::ManagedValues.1", %"class.std::shared_ptr", ptr, %"class.std::unique_ptr", i32, %"struct.hermes::hbc::CompileFlags", i8, [7 x i8] }>
%"class.facebook::hermes::HermesRuntime" = type { %"class.facebook::jsi::Runtime" }
%"class.facebook::jsi::Runtime" = type { ptr }
%"class.facebook::jsi::Instrumentation" = type { ptr }
%"class.facebook::hermes::HermesRuntimeImpl::ManagedValues" = type { %"class.hermes::ManagedChunkedList" }
%"class.hermes::ManagedChunkedList" = type { ptr, i64, %"class.hermes::ExponentialMovingAverage", ptr, double }
%"class.hermes::ExponentialMovingAverage" = type { double, double }
%"class.facebook::hermes::HermesRuntimeImpl::ManagedValues.1" = type { %"class.hermes::ManagedChunkedList.2" }
%"class.hermes::ManagedChunkedList.2" = type { ptr, i64, %"class.hermes::ExponentialMovingAverage", ptr, double }
%"class.std::shared_ptr" = type { %"class.std::__shared_ptr" }
%"class.std::__shared_ptr" = type { ptr, %"class.std::__shared_count" }
%"class.std::__shared_count" = type { ptr }
%"class.std::unique_ptr" = type { %"struct.std::__uniq_ptr_data" }
%"struct.std::__uniq_ptr_data" = type { %"class.std::__uniq_ptr_impl" }
%"class.std::__uniq_ptr_impl" = type { %"class.std::tuple" }
%"class.std::tuple" = type { %"struct.std::_Tuple_impl" }
%"struct.std::_Tuple_impl" = type { %"struct.std::_Head_base.4" }
%"struct.std::_Head_base.4" = type { ptr }
%"struct.hermes::hbc::CompileFlags" = type { i8, i8, i8, i32, i32, i8, %"class.llvh::Optional", i8, i8, i8, i8, i8, i8, i32 }
%"class.llvh::Optional" = type { %"struct.llvh::optional_detail::OptionalStorage" }
%"struct.llvh::optional_detail::OptionalStorage" = type { %"struct.llvh::AlignedCharArrayUnion", i8 }
%"struct.llvh::AlignedCharArrayUnion" = type { %"struct.llvh::AlignedCharArray" }
%"struct.llvh::AlignedCharArray" = type { [1 x i8] }
%class.anon.599 = type { ptr }
%"struct.facebook::hermes::HermesRuntimeImpl::ManagedValue" = type { %"struct.facebook::jsi::Runtime::PointerValue", %"struct.std::atomic.315", %union.anon.317 }
%"struct.facebook::jsi::Runtime::PointerValue" = type { ptr }
%"struct.std::atomic.315" = type { %"struct.std::__atomic_base.316" }
%"struct.std::__atomic_base.316" = type { i32 }
%union.anon.317 = type { %"class.hermes::vm::PinnedHermesValue" }
%"struct.hermes::ManagedChunkedList<facebook::hermes::HermesRuntimeImpl::ManagedValue<hermes::vm::PinnedHermesValue>>::Chunk" = type { ptr, [16 x %"struct.facebook::hermes::HermesRuntimeImpl::ManagedValue"] }

; Function Attrs: mustprogress nounwind uwtable
define linkonce_odr noundef i32 @_ZStanSt12memory_orderSt23__memory_order_modifier(i32 noundef %__m, i32 noundef %__mod) #1 comdat {
entry:
  %__m.addr = alloca i32, align 4
  %__mod.addr = alloca i32, align 4
  store i32 %__m, ptr %__m.addr, align 4
  store i32 %__mod, ptr %__mod.addr, align 4
  %0 = load i32, ptr %__m.addr, align 4
  %1 = load i32, ptr %__mod.addr, align 4
  %and = and i32 %0, %1
  ret i32 %and
}

; Function Attrs: mustprogress nounwind uwtable
define linkonce_odr hidden void @_ZZNK6hermes18ManagedChunkedListIN8facebook6hermes17HermesRuntimeImpl12ManagedValueINS_2vm17PinnedHermesValueEEELm16EE12sizeForTestsEvENKUlRS7_E_clES9_(ptr noundef nonnull align 8 dereferenceable(8) %this, ptr noundef nonnull align 8 dereferenceable(24) %0) #1 comdat align 2 {
entry:
  %this.addr = alloca ptr, align 8
  %.addr = alloca ptr, align 8
  store ptr %this, ptr %this.addr, align 8
  store ptr %0, ptr %.addr, align 8
  %this1 = load ptr, ptr %this.addr, align 8
  %1 = getelementptr inbounds %class.anon.599, ptr %this1, i32 0, i32 0
  %2 = load ptr, ptr %1, align 8
  %3 = load i64, ptr %2, align 8
  %inc = add i64 %3, 1
  store i64 %inc, ptr %2, align 8
  ret void
}

; Function Attrs: mustprogress nounwind uwtable
define linkonce_odr hidden noundef zeroext i1 @_ZNK8facebook6hermes17HermesRuntimeImpl12ManagedValueIN6hermes2vm17PinnedHermesValueEE6isFreeEv(ptr noundef nonnull align 8 dereferenceable(24) %this) #1 comdat align 2 {
entry:
  %this.addr.i = alloca ptr, align 8
  %__m.addr.i = alloca i32, align 4
  %__b.i = alloca i32, align 4
  %atomic-temp.i = alloca i32, align 4
  %this.addr = alloca ptr, align 8
  store ptr %this, ptr %this.addr, align 8
  %this1 = load ptr, ptr %this.addr, align 8
  %refCount_ = getelementptr inbounds %"struct.facebook::hermes::HermesRuntimeImpl::ManagedValue", ptr %this1, i32 0, i32 1
  store ptr %refCount_, ptr %this.addr.i, align 8
  store i32 0, ptr %__m.addr.i, align 4
  %this1.i = load ptr, ptr %this.addr.i, align 8
  %0 = load i32, ptr %__m.addr.i, align 4
  %call.i = call noundef i32 @_ZStanSt12memory_orderSt23__memory_order_modifier(i32 noundef %0, i32 noundef 65535)
  store i32 %call.i, ptr %__b.i, align 4
  %1 = load i32, ptr %__m.addr.i, align 4
  switch i32 %1, label %monotonic.i [
    i32 1, label %acquire.i
    i32 2, label %acquire.i
    i32 5, label %seqcst.i
  ]

monotonic.i:                                      ; preds = %entry
  %2 = load atomic i32, ptr %this1.i monotonic, align 4
  store i32 %2, ptr %atomic-temp.i, align 4
  br label %_ZNKSt13__atomic_baseIjE4loadESt12memory_order.exit

acquire.i:                                        ; preds = %entry, %entry
  %3 = load atomic i32, ptr %this1.i acquire, align 4
  store i32 %3, ptr %atomic-temp.i, align 4
  br label %_ZNKSt13__atomic_baseIjE4loadESt12memory_order.exit

seqcst.i:                                         ; preds = %entry
  %4 = load atomic i32, ptr %this1.i seq_cst, align 4
  store i32 %4, ptr %atomic-temp.i, align 4
  br label %_ZNKSt13__atomic_baseIjE4loadESt12memory_order.exit

_ZNKSt13__atomic_baseIjE4loadESt12memory_order.exit: ; preds = %seqcst.i, %acquire.i, %monotonic.i
  %5 = load i32, ptr %atomic-temp.i, align 4
  %cmp = icmp eq i32 %5, 0
  ret i1 %cmp
}

; Function Attrs: mustprogress uwtable
define linkonce_odr hidden void @_ZNK6hermes18ManagedChunkedListIN8facebook6hermes17HermesRuntimeImpl12ManagedValueINS_2vm17PinnedHermesValueEEELm16EE7forEachIZNKS8_12sizeForTestsEvEUlRS7_E_EEvT_(ptr noundef nonnull align 8 dereferenceable(48) %this, ptr %accept.coerce) #0 comdat align 2 {
entry:
  %accept = alloca %class.anon.599, align 8
  %this.addr = alloca ptr, align 8
  %chunk = alloca ptr, align 8
  %__range4 = alloca ptr, align 8
  %__begin0 = alloca ptr, align 8
  %__end0 = alloca ptr, align 8
  %element = alloca ptr, align 8
  %coerce.dive = getelementptr inbounds %class.anon.599, ptr %accept, i32 0, i32 0
  store ptr %accept.coerce, ptr %coerce.dive, align 8
  store ptr %this, ptr %this.addr, align 8
  %this1 = load ptr, ptr %this.addr, align 8
  %chunks_ = getelementptr inbounds %"class.hermes::ManagedChunkedList", ptr %this1, i32 0, i32 0
  %0 = load ptr, ptr %chunks_, align 8
  store ptr %0, ptr %chunk, align 8
  br label %for.cond

for.cond:                                         ; preds = %for.inc5, %entry
  %1 = load ptr, ptr %chunk, align 8
  %tobool = icmp ne ptr %1, null
  br i1 %tobool, label %for.body, label %for.end6

for.body:                                         ; preds = %for.cond
  %2 = load ptr, ptr %chunk, align 8
  %elements = getelementptr inbounds %"struct.hermes::ManagedChunkedList<facebook::hermes::HermesRuntimeImpl::ManagedValue<hermes::vm::PinnedHermesValue>>::Chunk", ptr %2, i32 0, i32 1
  store ptr %elements, ptr %__range4, align 8
  %3 = load ptr, ptr %__range4, align 8
  %arraydecay = getelementptr inbounds [16 x %"struct.facebook::hermes::HermesRuntimeImpl::ManagedValue"], ptr %3, i64 0, i64 0
  store ptr %arraydecay, ptr %__begin0, align 8
  %4 = load ptr, ptr %__range4, align 8
  %arraydecay2 = getelementptr inbounds [16 x %"struct.facebook::hermes::HermesRuntimeImpl::ManagedValue"], ptr %4, i64 0, i64 0
  %add.ptr = getelementptr inbounds %"struct.facebook::hermes::HermesRuntimeImpl::ManagedValue", ptr %arraydecay2, i64 16
  store ptr %add.ptr, ptr %__end0, align 8
  br label %for.cond3

for.cond3:                                        ; preds = %for.inc, %for.body
  %5 = load ptr, ptr %__begin0, align 8
  %6 = load ptr, ptr %__end0, align 8
  %cmp = icmp ne ptr %5, %6
  br i1 %cmp, label %for.body4, label %for.end

for.body4:                                        ; preds = %for.cond3
  %7 = load ptr, ptr %__begin0, align 8
  store ptr %7, ptr %element, align 8
  %8 = load ptr, ptr %element, align 8
  %call = call noundef zeroext i1 @_ZNK8facebook6hermes17HermesRuntimeImpl12ManagedValueIN6hermes2vm17PinnedHermesValueEE6isFreeEv(ptr noundef nonnull align 8 dereferenceable(24) %8)
  br i1 %call, label %if.end, label %if.then

if.then:                                          ; preds = %for.body4
  %9 = load ptr, ptr %element, align 8
  call void @_ZZNK6hermes18ManagedChunkedListIN8facebook6hermes17HermesRuntimeImpl12ManagedValueINS_2vm17PinnedHermesValueEEELm16EE12sizeForTestsEvENKUlRS7_E_clES9_(ptr noundef nonnull align 8 dereferenceable(8) %accept, ptr noundef nonnull align 8 dereferenceable(24) %9)
  br label %if.end

if.end:                                           ; preds = %if.then, %for.body4
  br label %for.inc

for.inc:                                          ; preds = %if.end
  %10 = load ptr, ptr %__begin0, align 8
  %incdec.ptr = getelementptr inbounds %"struct.facebook::hermes::HermesRuntimeImpl::ManagedValue", ptr %10, i32 1
  store ptr %incdec.ptr, ptr %__begin0, align 8
  br label %for.cond3

for.end:                                          ; preds = %for.cond3
  br label %for.inc5

for.inc5:                                         ; preds = %for.end
  %11 = load ptr, ptr %chunk, align 8
  %nextChunk = getelementptr inbounds %"struct.hermes::ManagedChunkedList<facebook::hermes::HermesRuntimeImpl::ManagedValue<hermes::vm::PinnedHermesValue>>::Chunk", ptr %11, i32 0, i32 0
  %12 = load ptr, ptr %nextChunk, align 8
  store ptr %12, ptr %chunk, align 8
  br label %for.cond, !llvm.loop !27

for.end6:                                         ; preds = %for.cond
  ret void
}

; Function Attrs: mustprogress uwtable
define linkonce_odr hidden noundef i64 @_ZNK6hermes18ManagedChunkedListIN8facebook6hermes17HermesRuntimeImpl12ManagedValueINS_2vm17PinnedHermesValueEEELm16EE12sizeForTestsEv(ptr noundef nonnull align 8 dereferenceable(48) %this) #0 comdat align 2 {
entry:
  %this.addr = alloca ptr, align 8
  %size = alloca i64, align 8
  %agg.tmp = alloca %class.anon.599, align 8
  store ptr %this, ptr %this.addr, align 8
  %this1 = load ptr, ptr %this.addr, align 8
  store i64 0, ptr %size, align 8
  %0 = getelementptr inbounds %class.anon.599, ptr %agg.tmp, i32 0, i32 0
  store ptr %size, ptr %0, align 8
  %coerce.dive = getelementptr inbounds %class.anon.599, ptr %agg.tmp, i32 0, i32 0
  %1 = load ptr, ptr %coerce.dive, align 8
  call void @_ZNK6hermes18ManagedChunkedListIN8facebook6hermes17HermesRuntimeImpl12ManagedValueINS_2vm17PinnedHermesValueEEELm16EE7forEachIZNKS8_12sizeForTestsEvEUlRS7_E_EEvT_(ptr noundef nonnull align 8 dereferenceable(48) %this1, ptr %1)
  %2 = load i64, ptr %size, align 8
  ret i64 %2
}

; Function Attrs: mustprogress nounwind uwtable
define internal noundef ptr @_ZN8facebook6hermes12_GLOBAL__N_14implEPKNS0_13HermesRuntimeE(ptr noundef %rt) #1 {
entry:
  %rt.addr = alloca ptr, align 8
  store ptr %rt, ptr %rt.addr, align 8
  %0 = load ptr, ptr %rt.addr, align 8
  ret ptr %0
}

; Function Attrs: mustprogress uwtable
define noundef i64 @_ZNK8facebook6hermes13HermesRuntime23rootsListLengthForTestsEv(ptr noundef nonnull align 8 dereferenceable(8) %this) #0 align 2 {
entry:
  %this.addr = alloca ptr, align 8
  store ptr %this, ptr %this.addr, align 8
  %this1 = load ptr, ptr %this.addr, align 8
  %call = call noundef ptr @_ZN8facebook6hermes12_GLOBAL__N_14implEPKNS0_13HermesRuntimeE(ptr noundef %this1)
  %hermesValues_ = getelementptr inbounds %"class.facebook::hermes::HermesRuntimeImpl", ptr %call, i32 0, i32 2
  %call2 = call noundef i64 @_ZNK6hermes18ManagedChunkedListIN8facebook6hermes17HermesRuntimeImpl12ManagedValueINS_2vm17PinnedHermesValueEEELm16EE12sizeForTestsEv(ptr noundef nonnull align 8 dereferenceable(48) %hermesValues_)
  ret i64 %call2
}