; Function Attrs: mustprogress nofree norecurse nounwind memory(readwrite, inaccessiblemem: none) uwtable
define noundef i64 @_ZNK8facebook6hermes13HermesRuntime23rootsListLengthForTestsEv(ptr nocapture noundef nonnull readonly align 8 dereferenceable(8) %this) local_unnamed_addr #11 align 2 {
entry:
  %hermesValues_ = getelementptr inbounds i8, ptr %this, i64 16
  %chunk.08.i.i = load ptr, ptr %hermesValues_, align 8
  %tobool.not9.i.i = icmp eq ptr %chunk.08.i.i, null
  br i1 %tobool.not9.i.i, label %_ZNK6hermes18ManagedChunkedListIN8facebook6hermes17HermesRuntimeImpl12ManagedValueINS_2vm17PinnedHermesValueEEELm16EE12sizeForTestsEv.exit, label %for.cond3.preheader.i.i

for.cond.loopexit.i.i:                            ; preds = %for.body4.i.i
  %chunk.0.i.i = load ptr, ptr %chunk.010.i.i, align 8
  %tobool.not.i.i = icmp eq ptr %chunk.0.i.i, null
  br i1 %tobool.not.i.i, label %_ZNK6hermes18ManagedChunkedListIN8facebook6hermes17HermesRuntimeImpl12ManagedValueINS_2vm17PinnedHermesValueEEELm16EE12sizeForTestsEv.exit, label %for.cond3.preheader.i.i, !llvm.loop !36

for.cond3.preheader.i.i:                          ; preds = %entry, %for.cond.loopexit.i.i
  %size.0.i = phi i64 [ %spec.select.i, %for.cond.loopexit.i.i ], [ 0, %entry ]
  %chunk.010.i.i = phi ptr [ %chunk.0.i.i, %for.cond.loopexit.i.i ], [ %chunk.08.i.i, %entry ]
  %invariant.gep.i.i = getelementptr inbounds i8, ptr %chunk.010.i.i, i64 8
  br label %for.body4.i.i

for.body4.i.i:                                    ; preds = %for.body4.i.i, %for.cond3.preheader.i.i
  %size.1.i = phi i64 [ %size.0.i, %for.cond3.preheader.i.i ], [ %spec.select.i, %for.body4.i.i ]
  %__begin0.0.idx7.i.i = phi i64 [ 8, %for.cond3.preheader.i.i ], [ %__begin0.0.add.i.i, %for.body4.i.i ]
  %gep.i.i = getelementptr inbounds i8, ptr %invariant.gep.i.i, i64 %__begin0.0.idx7.i.i
  %0 = load atomic i32, ptr %gep.i.i monotonic, align 4
  %cmp.i.i.i = icmp ne i32 %0, 0
  %inc.i.i.i = zext i1 %cmp.i.i.i to i64
  %spec.select.i = add i64 %size.1.i, %inc.i.i.i
  %__begin0.0.add.i.i = add nuw nsw i64 %__begin0.0.idx7.i.i, 24
  %cmp.not.i.i = icmp eq i64 %__begin0.0.add.i.i, 392
  br i1 %cmp.not.i.i, label %for.cond.loopexit.i.i, label %for.body4.i.i

_ZNK6hermes18ManagedChunkedListIN8facebook6hermes17HermesRuntimeImpl12ManagedValueINS_2vm17PinnedHermesValueEEELm16EE12sizeForTestsEv.exit: ; preds = %for.cond.loopexit.i.i, %entry
  %size.3.i = phi i64 [ 0, %entry ], [ %spec.select.i, %for.cond.loopexit.i.i ]
  ret i64 %size.3.i
}